target datalayout = "e-m:e-p270:32:32-p271:32:32-p272:64:64-i64:64-i128:128-f80:128-n8:16:32:64-S128"
target triple = "x86_64-pc-linux-gnu"

%"class.nori::ImageBlock" = type { %"class.Eigen::Array", %"struct.nori::TPoint", %"struct.nori::TVector", i32, ptr, float, ptr, ptr, float, %"class.tbb::mutex" }
%"class.Eigen::Array" = type { %"class.Eigen::PlainObjectBase" }
%"class.Eigen::PlainObjectBase" = type { %"class.Eigen::DenseStorage" }
%"class.Eigen::DenseStorage" = type { ptr, i64, i64 }
%"struct.nori::TPoint" = type { %"class.Eigen::Matrix" }
%"class.Eigen::Matrix" = type { %"class.Eigen::PlainObjectBase.2" }
%"class.Eigen::PlainObjectBase.2" = type { %"class.Eigen::DenseStorage.8" }
%"class.Eigen::DenseStorage.8" = type { %"struct.Eigen::internal::plain_array" }
%"struct.Eigen::internal::plain_array" = type { [2 x i32] }
%"struct.nori::TVector" = type { %"class.Eigen::Matrix" }
%"class.tbb::mutex" = type { %union.pthread_mutex_t }
%union.pthread_mutex_t = type { %struct.__pthread_mutex_s }
%struct.__pthread_mutex_s = type { i32, i32, i32, i32, i32, i16, i16, %struct.__pthread_internal_list }
%struct.__pthread_internal_list = type { ptr, ptr }

; Function Attrs: mustprogress nounwind uwtable
define linkonce_odr hidden void @_ZN5Eigen8internal12aligned_freeEPv(ptr noundef %0) #6 comdat {
  %2 = alloca ptr, align 8
  store ptr %0, ptr %2, align 8
  %3 = load ptr, ptr %2, align 8
  call void @free(ptr noundef %3) #3
  ret void
}

; Function Attrs: mustprogress uwtable
define linkonce_odr hidden void @_ZN5Eigen8internal24conditional_aligned_freeILb1EEEvPv(ptr noundef %0) #4 comdat {
  %2 = alloca ptr, align 8
  store ptr %0, ptr %2, align 8
  %3 = load ptr, ptr %2, align 8
  call void @_ZN5Eigen8internal12aligned_freeEPv(ptr noundef %3)
  ret void
}

; Function Attrs: mustprogress nounwind uwtable
define linkonce_odr hidden void @_ZN5Eigen8internal26destruct_elements_of_arrayIN4nori7Color4fEEEvPT_m(ptr noundef %0, i64 noundef %1) #6 comdat {
  %3 = alloca ptr, align 8
  %4 = alloca i64, align 8
  store ptr %0, ptr %3, align 8
  store i64 %1, ptr %4, align 8
  %5 = load ptr, ptr %3, align 8
  %6 = icmp ne ptr %5, null
  br i1 %6, label %7, label %15

7:                                                ; preds = %2
  br label %8

8:                                                ; preds = %11, %7
  %9 = load i64, ptr %4, align 8
  %10 = icmp ne i64 %9, 0
  br i1 %10, label %11, label %14

11:                                               ; preds = %8
  %12 = load i64, ptr %4, align 8
  %13 = add i64 %12, -1
  store i64 %13, ptr %4, align 8
  br label %8, !llvm.loop !24

14:                                               ; preds = %8
  br label %15

15:                                               ; preds = %14, %2
  ret void
}

; Function Attrs: noreturn nounwind uwtable
define linkonce_odr hidden void @__clang_call_terminate(ptr noundef %0) #5 comdat {
  %2 = call ptr @__cxa_begin_catch(ptr %0) #3
  call void @_ZSt9terminatev() #16
  unreachable
}

; Function Attrs: mustprogress uwtable
define linkonce_odr hidden void @_ZN5Eigen8internal31conditional_aligned_delete_autoIN4nori7Color4fELb1EEEvPT_m(ptr noundef %0, i64 noundef %1) #4 comdat {
  %3 = alloca ptr, align 8
  %4 = alloca i64, align 8
  store ptr %0, ptr %3, align 8
  store i64 %1, ptr %4, align 8
  %5 = load ptr, ptr %3, align 8
  %6 = load i64, ptr %4, align 8
  call void @_ZN5Eigen8internal26destruct_elements_of_arrayIN4nori7Color4fEEEvPT_m(ptr noundef %5, i64 noundef %6)
  %7 = load ptr, ptr %3, align 8
  call void @_ZN5Eigen8internal24conditional_aligned_freeILb1EEEvPv(ptr noundef %7)
  ret void
}

; Function Attrs: mustprogress nounwind uwtable
define linkonce_odr hidden void @_ZN5Eigen12DenseStorageIN4nori7Color4fELin1ELin1ELin1ELi1EED2Ev(ptr noundef nonnull align 8 dereferenceable(24) %0) unnamed_addr #6 comdat align 2 personality ptr @__gxx_personality_v0 {
  %2 = alloca ptr, align 8
  store ptr %0, ptr %2, align 8
  %3 = load ptr, ptr %2, align 8
  %4 = getelementptr inbounds %"class.Eigen::DenseStorage", ptr %3, i32 0, i32 0
  %5 = load ptr, ptr %4, align 8
  %6 = getelementptr inbounds %"class.Eigen::DenseStorage", ptr %3, i32 0, i32 1
  %7 = load i64, ptr %6, align 8
  %8 = getelementptr inbounds %"class.Eigen::DenseStorage", ptr %3, i32 0, i32 2
  %9 = load i64, ptr %8, align 8
  %10 = mul nsw i64 %7, %9
  invoke void @_ZN5Eigen8internal31conditional_aligned_delete_autoIN4nori7Color4fELb1EEEvPT_m(ptr noundef %5, i64 noundef %10)
          to label %11 unwind label %12

11:                                               ; preds = %1
  ret void

12:                                               ; preds = %1
  %13 = landingpad { ptr, i32 }
          catch ptr null
  %14 = extractvalue { ptr, i32 } %13, 0
  call void @__clang_call_terminate(ptr %14) #16
  unreachable
}

; Function Attrs: mustprogress nounwind uwtable
define linkonce_odr hidden void @_ZN5Eigen15PlainObjectBaseINS_5ArrayIN4nori7Color4fELin1ELin1ELi1ELin1ELin1EEEED2Ev(ptr noundef nonnull align 8 dereferenceable(24) %0) unnamed_addr #6 comdat align 2 {
  %2 = alloca ptr, align 8
  store ptr %0, ptr %2, align 8
  %3 = load ptr, ptr %2, align 8
  %4 = getelementptr inbounds %"class.Eigen::PlainObjectBase", ptr %3, i32 0, i32 0
  call void @_ZN5Eigen12DenseStorageIN4nori7Color4fELin1ELin1ELin1ELi1EED2Ev(ptr noundef nonnull align 8 dereferenceable(24) %4) #3
  ret void
}

; Function Attrs: mustprogress nounwind uwtable
define linkonce_odr hidden void @_ZN5Eigen5ArrayIN4nori7Color4fELin1ELin1ELi1ELin1ELin1EED2Ev(ptr noundef nonnull align 8 dereferenceable(24) %0) unnamed_addr #6 comdat align 2 {
  %2 = alloca ptr, align 8
  store ptr %0, ptr %2, align 8
  %3 = load ptr, ptr %2, align 8
  call void @_ZN5Eigen15PlainObjectBaseINS_5ArrayIN4nori7Color4fELin1ELin1ELi1ELin1ELin1EEEED2Ev(ptr noundef nonnull align 8 dereferenceable(24) %3) #3
  ret void
}

; Function Attrs: mustprogress nounwind uwtable
define linkonce_odr hidden void @_ZN3tbb5mutexD2Ev(ptr noundef nonnull align 8 dereferenceable(40) %0) unnamed_addr #6 comdat align 2 {
  %2 = alloca ptr, align 8
  store ptr %0, ptr %2, align 8
  %3 = load ptr, ptr %2, align 8
  %4 = getelementptr inbounds %"class.tbb::mutex", ptr %3, i32 0, i32 0
  %5 = call i32 @pthread_mutex_destroy(ptr noundef %4) #3
  ret void
}

; Function Attrs: mustprogress nounwind uwtable
define hidden void @_ZN4nori10ImageBlockD2Ev(ptr noundef nonnull align 8 dereferenceable(128) %0) unnamed_addr #6 align 2 {
  %2 = alloca ptr, align 8
  store ptr %0, ptr %2, align 8
  %3 = load ptr, ptr %2, align 8
  %4 = getelementptr inbounds %"class.nori::ImageBlock", ptr %3, i32 0, i32 4
  %5 = load ptr, ptr %4, align 8
  %6 = icmp eq ptr %5, null
  br i1 %6, label %8, label %7

7:                                                ; preds = %1
  call void @_ZdaPv(ptr noundef %5) #17
  br label %8

8:                                                ; preds = %7, %1
  %9 = getelementptr inbounds %"class.nori::ImageBlock", ptr %3, i32 0, i32 6
  %10 = load ptr, ptr %9, align 8
  %11 = icmp eq ptr %10, null
  br i1 %11, label %13, label %12

12:                                               ; preds = %8
  call void @_ZdaPv(ptr noundef %10) #17
  br label %13

13:                                               ; preds = %12, %8
  %14 = getelementptr inbounds %"class.nori::ImageBlock", ptr %3, i32 0, i32 7
  %15 = load ptr, ptr %14, align 8
  %16 = icmp eq ptr %15, null
  br i1 %16, label %18, label %17

17:                                               ; preds = %13
  call void @_ZdaPv(ptr noundef %15) #17
  br label %18

18:                                               ; preds = %17, %13
  %19 = getelementptr inbounds %"class.nori::ImageBlock", ptr %3, i32 0, i32 9
  call void @_ZN3tbb5mutexD2Ev(ptr noundef nonnull align 8 dereferenceable(40) %19) #3
  call void @_ZN5Eigen5ArrayIN4nori7Color4fELin1ELin1ELi1ELin1ELin1EED2Ev(ptr noundef nonnull align 8 dereferenceable(24) %3) #3
  ret void
}