; Function Attrs: mustprogress nounwind uwtable
define hidden void @_ZN4nori10ImageBlockD2Ev(ptr noundef nonnull align 8 dereferenceable(128) %0) unnamed_addr #8 align 2 personality ptr @__gxx_personality_v0 {
  %2 = getelementptr inbounds i8, ptr %0, i64 48
  %3 = load ptr, ptr %2, align 8
  %4 = icmp eq ptr %3, null
  br i1 %4, label %6, label %5

5:                                                ; preds = %1
  tail call void @_ZdaPv(ptr noundef nonnull %3) #21
  br label %6

6:                                                ; preds = %5, %1
  %7 = getelementptr inbounds i8, ptr %0, i64 64
  %8 = load ptr, ptr %7, align 8
  %9 = icmp eq ptr %8, null
  br i1 %9, label %11, label %10

10:                                               ; preds = %6
  tail call void @_ZdaPv(ptr noundef nonnull %8) #21
  br label %11

11:                                               ; preds = %10, %6
  %12 = getelementptr inbounds i8, ptr %0, i64 72
  %13 = load ptr, ptr %12, align 8
  %14 = icmp eq ptr %13, null
  br i1 %14, label %16, label %15

15:                                               ; preds = %11
  tail call void @_ZdaPv(ptr noundef nonnull %13) #21
  br label %16

16:                                               ; preds = %15, %11
  %17 = getelementptr inbounds i8, ptr %0, i64 88
  %18 = tail call i32 @pthread_mutex_destroy(ptr noundef nonnull %17) #17
  %19 = load ptr, ptr %0, align 8
  tail call void @free(ptr noundef %19) #17
  ret void
}